; ModuleID = '28/282.c'
source_filename = "28/282.c"
target datalayout = "e-m:e-p270:32:32-p271:32:32-p272:64:64-i64:64-f80:128-n8:16:32:64-S128"
target triple = "x86_64-pc-linux-gnu"

@.str = private unnamed_addr constant [4 x i8] c"%d,\00", align 1
@.str.1 = private unnamed_addr constant [4 x i8] c"%d\0A\00", align 1

; Function Attrs: noinline nounwind uwtable
define dso_local void @main() #0 {
  %1 = alloca [10000 x i8], align 16
  %2 = alloca [300 x i32], align 16
  %3 = alloca i32*, align 8
  %4 = alloca i32*, align 8
  %5 = alloca i32, align 4
  %6 = bitcast [300 x i32]* %2 to i8*
  call void @llvm.memset.p0i8.i64(i8* align 16 %6, i8 0, i64 1200, i1 false)
  %7 = getelementptr inbounds [300 x i32], [300 x i32]* %2, i64 0, i64 0
  store i32* %7, i32** %3, align 8
  %8 = getelementptr inbounds [300 x i32], [300 x i32]* %2, i64 0, i64 0
  store i32* %8, i32** %4, align 8
  %9 = getelementptr inbounds [10000 x i8], [10000 x i8]* %1, i64 0, i64 0
  %10 = call i32 (i8*, ...) bitcast (i32 (...)* @gets to i32 (i8*, ...)*)(i8* %9)
  store i32 0, i32* %5, align 4
  br label %11

11:                                               ; preds = %35, %0
  %12 = load i32, i32* %5, align 4
  %13 = sext i32 %12 to i64
  %14 = getelementptr inbounds [10000 x i8], [10000 x i8]* %1, i64 0, i64 %13
  %15 = load i8, i8* %14, align 1
  %16 = sext i8 %15 to i32
  %17 = icmp ne i32 %16, 0
  br i1 %17, label %18, label %38

18:                                               ; preds = %11
  %19 = load i32, i32* %5, align 4
  %20 = sext i32 %19 to i64
  %21 = getelementptr inbounds [10000 x i8], [10000 x i8]* %1, i64 0, i64 %20
  %22 = load i8, i8* %21, align 1
  %23 = sext i8 %22 to i32
  %24 = icmp ne i32 %23, 32
  br i1 %24, label %25, label %29

25:                                               ; preds = %18
  %26 = load i32*, i32** %3, align 8
  %27 = load i32, i32* %26, align 4
  %28 = add nsw i32 %27, 1
  store i32 %28, i32* %26, align 4
  br label %34

29:                                               ; preds = %18
  %30 = load i32*, i32** %3, align 8
  %31 = getelementptr inbounds i32, i32* %30, i32 1
  store i32* %31, i32** %3, align 8
  %32 = load i32*, i32** %4, align 8
  %33 = getelementptr inbounds i32, i32* %32, i32 1
  store i32* %33, i32** %4, align 8
  br label %34

34:                                               ; preds = %29, %25
  br label %35

35:                                               ; preds = %34
  %36 = load i32, i32* %5, align 4
  %37 = add nsw i32 %36, 1
  store i32 %37, i32* %5, align 4
  br label %11

38:                                               ; preds = %11
  %39 = getelementptr inbounds [300 x i32], [300 x i32]* %2, i64 0, i64 0
  store i32* %39, i32** %3, align 8
  br label %40

40:                                               ; preds = %53, %38
  %41 = load i32*, i32** %3, align 8
  %42 = load i32*, i32** %4, align 8
  %43 = icmp ult i32* %41, %42
  br i1 %43, label %44, label %56

44:                                               ; preds = %40
  %45 = load i32*, i32** %3, align 8
  %46 = load i32, i32* %45, align 4
  %47 = icmp ne i32 %46, 0
  br i1 %47, label %48, label %52

48:                                               ; preds = %44
  %49 = load i32*, i32** %3, align 8
  %50 = load i32, i32* %49, align 4
  %51 = call i32 (i8*, ...) @printf(i8* getelementptr inbounds ([4 x i8], [4 x i8]* @.str, i64 0, i64 0), i32 %50)
  br label %52

52:                                               ; preds = %48, %44
  br label %53

53:                                               ; preds = %52
  %54 = load i32*, i32** %3, align 8
  %55 = getelementptr inbounds i32, i32* %54, i32 1
  store i32* %55, i32** %3, align 8
  br label %40

56:                                               ; preds = %40
  %57 = load i32*, i32** %4, align 8
  %58 = load i32, i32* %57, align 4
  %59 = call i32 (i8*, ...) @printf(i8* getelementptr inbounds ([4 x i8], [4 x i8]* @.str.1, i64 0, i64 0), i32 %58)
  ret void
}

; Function Attrs: argmemonly nounwind willreturn
declare void @llvm.memset.p0i8.i64(i8* nocapture writeonly, i8, i64, i1 immarg) #1

declare dso_local i32 @gets(...) #2

declare dso_local i32 @printf(i8*, ...) #2


!llvm.module.flags = !{!0}
!llvm.ident = !{!1}

!0 = !{i32 1, !"wchar_size", i32 4}
!1 = !{!"clang version 10.0.0-4ubuntu1 "}
