; ModuleID = 'source-C-CXX/27/282.c'
source_filename = "source-C-CXX/27/282.c"
target datalayout = "e-m:e-p270:32:32-p271:32:32-p272:64:64-i64:64-f80:128-n8:16:32:64-S128"
target triple = "x86_64-pc-linux-gnu"

@.str = private unnamed_addr constant [4 x i8] c"%d,\00", align 1
@.str.1 = private unnamed_addr constant [4 x i8] c"%d\0A\00", align 1

; Function Attrs: nounwind sspstrong uwtable
define dso_local void @main() local_unnamed_addr #0 {
  %1 = alloca [10000 x i8], align 16
  %2 = alloca [300 x i32], align 16
  %3 = getelementptr inbounds [10000 x i8], [10000 x i8]* %1, i64 0, i64 0
  call void @llvm.lifetime.start.p0i8(i64 10000, i8* nonnull %3) #5
  %4 = bitcast [300 x i32]* %2 to i8*
  call void @llvm.lifetime.start.p0i8(i64 1200, i8* nonnull %4) #5
  call void @llvm.memset.p0i8.i64(i8* noundef nonnull align 16 dereferenceable(1200) %4, i8 0, i64 1200, i1 false)
  %5 = getelementptr inbounds [300 x i32], [300 x i32]* %2, i64 0, i64 0
  %6 = call i32 (i8*, ...) bitcast (i32 (...)* @gets to i32 (i8*, ...)*)(i8* nonnull %3) #5
  br label %7

7:                                                ; preds = %22, %0
  %8 = phi i64 [ %25, %22 ], [ 0, %0 ]
  %9 = phi i32* [ %23, %22 ], [ %5, %0 ]
  %10 = phi i64 [ %24, %22 ], [ 0, %0 ]
  %11 = getelementptr inbounds [10000 x i8], [10000 x i8]* %1, i64 0, i64 %8
  %12 = load i8, i8* %11, align 1, !tbaa !5
  switch i8 %12, label %16 [
    i8 0, label %13
    i8 32, label %19
  ]

13:                                               ; preds = %7
  %14 = getelementptr inbounds [300 x i32], [300 x i32]* %2, i64 0, i64 %10
  %15 = icmp sgt i64 %10, 0
  br i1 %15, label %26, label %35

16:                                               ; preds = %7
  %17 = load i32, i32* %9, align 4, !tbaa !8
  %18 = add nsw i32 %17, 1
  store i32 %18, i32* %9, align 4, !tbaa !8
  br label %22

19:                                               ; preds = %7
  %20 = getelementptr inbounds i32, i32* %9, i64 1
  %21 = add nsw i64 %10, 1
  br label %22

22:                                               ; preds = %16, %19
  %23 = phi i32* [ %9, %16 ], [ %20, %19 ]
  %24 = phi i64 [ %10, %16 ], [ %21, %19 ]
  %25 = add nuw i64 %8, 1
  br label %7, !llvm.loop !10

26:                                               ; preds = %13, %32
  %27 = phi i32* [ %33, %32 ], [ %5, %13 ]
  %28 = load i32, i32* %27, align 4, !tbaa !8
  %29 = icmp eq i32 %28, 0
  br i1 %29, label %32, label %30

30:                                               ; preds = %26
  %31 = call i32 (i8*, ...) @printf(i8* nonnull dereferenceable(1) getelementptr inbounds ([4 x i8], [4 x i8]* @.str, i64 0, i64 0), i32 %28)
  br label %32

32:                                               ; preds = %26, %30
  %33 = getelementptr inbounds i32, i32* %27, i64 1
  %34 = icmp ult i32* %33, %14
  br i1 %34, label %26, label %35, !llvm.loop !12

35:                                               ; preds = %32, %13
  %36 = load i32, i32* %14, align 4, !tbaa !8
  %37 = call i32 (i8*, ...) @printf(i8* nonnull dereferenceable(1) getelementptr inbounds ([4 x i8], [4 x i8]* @.str.1, i64 0, i64 0), i32 %36)
  call void @llvm.lifetime.end.p0i8(i64 1200, i8* nonnull %4) #5
  call void @llvm.lifetime.end.p0i8(i64 10000, i8* nonnull %3) #5
  ret void
}

; Function Attrs: argmemonly mustprogress nofree nosync nounwind willreturn
declare void @llvm.lifetime.start.p0i8(i64 immarg, i8* nocapture) #1

; Function Attrs: argmemonly mustprogress nofree nounwind willreturn writeonly
declare void @llvm.memset.p0i8.i64(i8* nocapture writeonly, i8, i64, i1 immarg) #2

declare i32 @gets(...) local_unnamed_addr #3

; Function Attrs: nofree nounwind
declare noundef i32 @printf(i8* nocapture noundef readonly, ...) local_unnamed_addr #4

; Function Attrs: argmemonly mustprogress nofree nosync nounwind willreturn
declare void @llvm.lifetime.end.p0i8(i64 immarg, i8* nocapture) #1


!llvm.module.flags = !{!0, !1, !2, !3}
!llvm.ident = !{!4}

!0 = !{i32 1, !"wchar_size", i32 4}
!1 = !{i32 7, !"PIC Level", i32 2}
!2 = !{i32 7, !"PIE Level", i32 2}
!3 = !{i32 7, !"uwtable", i32 1}
!4 = !{!"clang version 13.0.0"}
!5 = !{!6, !6, i64 0}
!6 = !{!"omnipotent char", !7, i64 0}
!7 = !{!"Simple C/C++ TBAA"}
!8 = !{!9, !9, i64 0}
!9 = !{!"int", !6, i64 0}
!10 = distinct !{!10, !11}
!11 = !{!"llvm.loop.mustprogress"}
!12 = distinct !{!12, !11}
